; Function Attrs: mustprogress uwtable
define hidden noundef zeroext i1 @_ZNK8facebook6hermes7tracing10SynthTrace18CreateStringRecordeqERKNS2_6RecordE(ptr noundef nonnull align 8 dereferenceable(57) %this, ptr noundef nonnull align 8 dereferenceable(16) %that) unnamed_addr #1 align 2 personality ptr @__gxx_personality_v0 {
entry:
  %vtable.i = load ptr, ptr %this, align 8
  %vfn.i = getelementptr inbounds i8, ptr %vtable.i, i64 16
  %0 = load ptr, ptr %vfn.i, align 8
  %call.i = tail call noundef i32 %0(ptr noundef nonnull align 8 dereferenceable(16) %this)
  %vtable2.i = load ptr, ptr %that, align 8
  %vfn3.i = getelementptr inbounds i8, ptr %vtable2.i, i64 16
  %1 = load ptr, ptr %vfn3.i, align 8
  %call4.i = tail call noundef i32 %1(ptr noundef nonnull align 8 dereferenceable(16) %that)
  %cmp.i = icmp eq i32 %call.i, %call4.i
  br i1 %cmp.i, label %if.end, label %return

if.end:                                           ; preds = %entry
  %2 = tail call ptr @__dynamic_cast(ptr nonnull %that, ptr nonnull @_ZTIN8facebook6hermes7tracing10SynthTrace6RecordE, ptr nonnull @_ZTIN8facebook6hermes7tracing10SynthTrace18CreateStringRecordE, i64 0) #23
  %3 = icmp eq ptr %2, null
  br i1 %3, label %dynamic_cast.bad_cast, label %dynamic_cast.end

dynamic_cast.bad_cast:                            ; preds = %if.end
  tail call void @__cxa_bad_cast() #26
  unreachable

dynamic_cast.end:                                 ; preds = %if.end
  %objID_ = getelementptr inbounds i8, ptr %this, i64 16
  %4 = load i64, ptr %objID_, align 8
  %objID_2 = getelementptr inbounds i8, ptr %2, i64 16
  %5 = load i64, ptr %objID_2, align 8
  %cmp = icmp eq i64 %4, %5
  br i1 %cmp, label %land.lhs.true, label %return

land.lhs.true:                                    ; preds = %dynamic_cast.end
  %ascii_ = getelementptr inbounds i8, ptr %this, i64 56
  %6 = load i8, ptr %ascii_, align 8
  %ascii_3 = getelementptr inbounds i8, ptr %2, i64 56
  %7 = load i8, ptr %ascii_3, align 8
  %8 = xor i8 %7, %6
  %9 = and i8 %8, 1
  %cmp6 = icmp eq i8 %9, 0
  br i1 %cmp6, label %land.rhs, label %return

land.rhs:                                         ; preds = %land.lhs.true
  %chars_ = getelementptr inbounds i8, ptr %this, i64 24
  %chars_7 = getelementptr inbounds i8, ptr %2, i64 24
  %call.i4 = tail call noundef i64 @_ZNKSt7__cxx1112basic_stringIcSt11char_traitsIcESaIcEE4sizeEv(ptr noundef nonnull align 8 dereferenceable(32) %chars_) #23
  %call1.i = tail call noundef i64 @_ZNKSt7__cxx1112basic_stringIcSt11char_traitsIcESaIcEE4sizeEv(ptr noundef nonnull align 8 dereferenceable(32) %chars_7) #23
  %cmp.i5 = icmp eq i64 %call.i4, %call1.i
  br i1 %cmp.i5, label %land.rhs.i, label %return

land.rhs.i:                                       ; preds = %land.rhs
  %call2.i = tail call noundef ptr @_ZNKSt7__cxx1112basic_stringIcSt11char_traitsIcESaIcEE4dataEv(ptr noundef nonnull align 8 dereferenceable(32) %chars_) #23
  %call3.i = tail call noundef ptr @_ZNKSt7__cxx1112basic_stringIcSt11char_traitsIcESaIcEE4dataEv(ptr noundef nonnull align 8 dereferenceable(32) %chars_7) #23
  %call4.i6 = tail call noundef i64 @_ZNKSt7__cxx1112basic_stringIcSt11char_traitsIcESaIcEE4sizeEv(ptr noundef nonnull align 8 dereferenceable(32) %chars_) #23
  %cmp.i.i = icmp eq i64 %call4.i6, 0
  br i1 %cmp.i.i, label %return, label %if.end.i.i

if.end.i.i:                                       ; preds = %land.rhs.i
  %bcmp.i = tail call i32 @bcmp(ptr %call2.i, ptr %call3.i, i64 %call4.i6)
  %10 = icmp eq i32 %bcmp.i, 0
  br label %return

return:                                           ; preds = %if.end.i.i, %land.rhs.i, %land.rhs, %dynamic_cast.end, %land.lhs.true, %entry
  %retval.0 = phi i1 [ false, %entry ], [ false, %land.lhs.true ], [ false, %dynamic_cast.end ], [ false, %land.rhs ], [ %10, %if.end.i.i ], [ true, %land.rhs.i ]
  ret i1 %retval.0
}